target datalayout = "e-m:e-p270:32:32-p271:32:32-p272:64:64-i64:64-i128:128-f80:128-n8:16:32:64-S128"
target triple = "x86_64-pc-linux-gnu"

%struct.Vec_Int_t_ = type { i32, i32, ptr }
%struct.Gia_Man2Min_t_ = type { ptr, [2 x i32], [2 x ptr], [2 x ptr], ptr, ptr, ptr, ptr, ptr, i32, i32, i32, i32, i32, i32, i32 }

; Function Attrs: inlinehint nounwind uwtable
define internal void @Vec_IntClear(ptr noundef %0) #3 {
  %2 = alloca ptr, align 8
  store ptr %0, ptr %2, align 8, !tbaa !15
  %3 = load ptr, ptr %2, align 8, !tbaa !15
  %4 = getelementptr inbounds nuw %struct.Vec_Int_t_, ptr %3, i32 0, i32 1
  store i32 0, ptr %4, align 4, !tbaa !22
  ret void
}

; Function Attrs: nounwind uwtable
define i32 @Gia_Min2ManGatherSupp(ptr noundef %0) #0 {
  %2 = alloca ptr, align 8
  %3 = alloca i32, align 4
  %4 = alloca i32, align 4
  store ptr %0, ptr %2, align 8, !tbaa !82
  call void @llvm.lifetime.start.p0(i64 4, ptr %3) #11
  call void @llvm.lifetime.start.p0(i64 4, ptr %4) #11
  store i32 0, ptr %4, align 4, !tbaa !20
  %5 = load ptr, ptr %2, align 8, !tbaa !82
  %6 = getelementptr inbounds nuw %struct.Gia_Man2Min_t_, ptr %5, i32 0, i32 15
  %7 = load i32, ptr %6, align 8, !tbaa !124
  %8 = add nsw i32 %7, 1
  store i32 %8, ptr %6, align 8, !tbaa !124
  %9 = load ptr, ptr %2, align 8, !tbaa !82
  %10 = getelementptr inbounds nuw %struct.Gia_Man2Min_t_, ptr %9, i32 0, i32 0
  %11 = load ptr, ptr %10, align 8, !tbaa !84
  call void @Gia_ManIncrementTravId(ptr noundef %11)
  store i32 0, ptr %3, align 4, !tbaa !20
  br label %12

12:                                               ; preds = %54, %1
  %13 = load i32, ptr %3, align 4, !tbaa !20
  %14 = icmp slt i32 %13, 2
  br i1 %14, label %15, label %57

15:                                               ; preds = %12
  %16 = load ptr, ptr %2, align 8, !tbaa !82
  %17 = getelementptr inbounds nuw %struct.Gia_Man2Min_t_, ptr %16, i32 0, i32 2
  %18 = load i32, ptr %3, align 4, !tbaa !20
  %19 = sext i32 %18 to i64
  %20 = getelementptr inbounds [2 x ptr], ptr %17, i64 0, i64 %19
  %21 = load ptr, ptr %20, align 8, !tbaa !15
  call void @Vec_IntClear(ptr noundef %21)
  %22 = load ptr, ptr %2, align 8, !tbaa !82
  %23 = getelementptr inbounds nuw %struct.Gia_Man2Min_t_, ptr %22, i32 0, i32 3
  %24 = load i32, ptr %3, align 4, !tbaa !20
  %25 = sext i32 %24 to i64
  %26 = getelementptr inbounds [2 x ptr], ptr %23, i64 0, i64 %25
  %27 = load ptr, ptr %26, align 8, !tbaa !15
  call void @Vec_IntClear(ptr noundef %27)
  %28 = load ptr, ptr %2, align 8, !tbaa !82
  %29 = getelementptr inbounds nuw %struct.Gia_Man2Min_t_, ptr %28, i32 0, i32 0
  %30 = load ptr, ptr %29, align 8, !tbaa !84
  call void @Gia_ManIncrementTravId(ptr noundef %30)
  %31 = load ptr, ptr %2, align 8, !tbaa !82
  %32 = getelementptr inbounds nuw %struct.Gia_Man2Min_t_, ptr %31, i32 0, i32 0
  %33 = load ptr, ptr %32, align 8, !tbaa !84
  %34 = load ptr, ptr %2, align 8, !tbaa !82
  %35 = getelementptr inbounds nuw %struct.Gia_Man2Min_t_, ptr %34, i32 0, i32 1
  %36 = load i32, ptr %3, align 4, !tbaa !20
  %37 = sext i32 %36 to i64
  %38 = getelementptr inbounds [2 x i32], ptr %35, i64 0, i64 %37
  %39 = load i32, ptr %38, align 4, !tbaa !20
  %40 = call i32 @Abc_Lit2Var(i32 noundef %39)
  %41 = load ptr, ptr %2, align 8, !tbaa !82
  %42 = getelementptr inbounds nuw %struct.Gia_Man2Min_t_, ptr %41, i32 0, i32 2
  %43 = load i32, ptr %3, align 4, !tbaa !20
  %44 = sext i32 %43 to i64
  %45 = getelementptr inbounds [2 x ptr], ptr %42, i64 0, i64 %44
  %46 = load ptr, ptr %45, align 8, !tbaa !15
  %47 = load ptr, ptr %2, align 8, !tbaa !82
  %48 = getelementptr inbounds nuw %struct.Gia_Man2Min_t_, ptr %47, i32 0, i32 3
  %49 = load i32, ptr %3, align 4, !tbaa !20
  %50 = sext i32 %49 to i64
  %51 = getelementptr inbounds [2 x ptr], ptr %48, i64 0, i64 %50
  %52 = load ptr, ptr %51, align 8, !tbaa !15
  %53 = call i32 @Gia_Min2ManGatherSupp_rec(ptr noundef %33, i32 noundef %40, ptr noundef %46, ptr noundef %52)
  store i32 %53, ptr %4, align 4, !tbaa !20
  br label %54

54:                                               ; preds = %15
  %55 = load i32, ptr %3, align 4, !tbaa !20
  %56 = add nsw i32 %55, 1
  store i32 %56, ptr %3, align 4, !tbaa !20
  br label %12, !llvm.loop !125

57:                                               ; preds = %12
  %58 = load i32, ptr %4, align 4, !tbaa !20
  call void @llvm.lifetime.end.p0(i64 4, ptr %4) #11
  call void @llvm.lifetime.end.p0(i64 4, ptr %3) #11
  ret i32 %58
}

; Function Attrs: inlinehint nounwind uwtable
define internal i32 @Abc_Lit2Var(i32 noundef %0) #3 {
  %2 = alloca i32, align 4
  store i32 %0, ptr %2, align 4, !tbaa !20
  %3 = load i32, ptr %2, align 4, !tbaa !20
  %4 = ashr i32 %3, 1
  ret i32 %4
}

; Function Attrs: nounwind uwtable
define i32 @Gia_Man2SupportAnd(ptr noundef %0, i32 noundef %1, i32 noundef %2) #0 {
  %4 = alloca i32, align 4
  %5 = alloca ptr, align 8
  %6 = alloca i32, align 4
  %7 = alloca i32, align 4
  store ptr %0, ptr %5, align 8, !tbaa !82
  store i32 %1, ptr %6, align 4, !tbaa !20
  store i32 %2, ptr %7, align 4, !tbaa !20
  %8 = load ptr, ptr %5, align 8, !tbaa !82
  %9 = getelementptr inbounds nuw %struct.Gia_Man2Min_t_, ptr %8, i32 0, i32 13
  %10 = load i32, ptr %9, align 8, !tbaa !126
  %11 = add nsw i32 %10, 1
  store i32 %11, ptr %9, align 8, !tbaa !126
  %12 = load i32, ptr %6, align 4, !tbaa !20
  %13 = load ptr, ptr %5, align 8, !tbaa !82
  %14 = getelementptr inbounds nuw %struct.Gia_Man2Min_t_, ptr %13, i32 0, i32 1
  %15 = getelementptr inbounds [2 x i32], ptr %14, i64 0, i64 0
  store i32 %12, ptr %15, align 8, !tbaa !20
  %16 = load i32, ptr %7, align 4, !tbaa !20
  %17 = load ptr, ptr %5, align 8, !tbaa !82
  %18 = getelementptr inbounds nuw %struct.Gia_Man2Min_t_, ptr %17, i32 0, i32 1
  %19 = getelementptr inbounds [2 x i32], ptr %18, i64 0, i64 1
  store i32 %16, ptr %19, align 4, !tbaa !20
  %20 = load i32, ptr %6, align 4, !tbaa !20
  %21 = icmp slt i32 %20, 2
  br i1 %21, label %51, label %22

22:                                               ; preds = %3
  %23 = load i32, ptr %7, align 4, !tbaa !20
  %24 = icmp slt i32 %23, 2
  br i1 %24, label %51, label %25

25:                                               ; preds = %22
  %26 = load i32, ptr %6, align 4, !tbaa !20
  %27 = call i32 @Abc_Lit2Var(i32 noundef %26)
  %28 = load i32, ptr %7, align 4, !tbaa !20
  %29 = call i32 @Abc_Lit2Var(i32 noundef %28)
  %30 = icmp eq i32 %27, %29
  br i1 %30, label %51, label %31

31:                                               ; preds = %25
  %32 = load ptr, ptr %5, align 8, !tbaa !82
  %33 = getelementptr inbounds nuw %struct.Gia_Man2Min_t_, ptr %32, i32 0, i32 0
  %34 = load ptr, ptr %33, align 8, !tbaa !84
  %35 = load i32, ptr %6, align 4, !tbaa !20
  %36 = load i32, ptr %7, align 4, !tbaa !20
  %37 = call i32 @Gia_ManHashLookupInt(ptr noundef %34, i32 noundef %35, i32 noundef %36)
  %38 = icmp ne i32 %37, 0
  br i1 %38, label %51, label %39

39:                                               ; preds = %31
  %40 = load ptr, ptr %5, align 8, !tbaa !82
  %41 = call i32 @Gia_Min2ManGatherSupp(ptr noundef %40)
  %42 = icmp ne i32 %41, 0
  br i1 %42, label %43, label %51

43:                                               ; preds = %39
  %44 = load ptr, ptr %5, align 8, !tbaa !82
  %45 = call i32 @Gia_Min2ManSimulate(ptr noundef %44)
  %46 = icmp ne i32 %45, 0
  br i1 %46, label %47, label %51

47:                                               ; preds = %43
  %48 = load ptr, ptr %5, align 8, !tbaa !82
  %49 = call i32 @Gia_Min2ManSolve(ptr noundef %48)
  %50 = icmp ne i32 %49, 0
  br i1 %50, label %58, label %51

51:                                               ; preds = %47, %43, %39, %31, %25, %22, %3
  %52 = load ptr, ptr %5, align 8, !tbaa !82
  %53 = getelementptr inbounds nuw %struct.Gia_Man2Min_t_, ptr %52, i32 0, i32 0
  %54 = load ptr, ptr %53, align 8, !tbaa !84
  %55 = load i32, ptr %6, align 4, !tbaa !20
  %56 = load i32, ptr %7, align 4, !tbaa !20
  %57 = call i32 @Gia_ManHashAnd(ptr noundef %54, i32 noundef %55, i32 noundef %56)
  store i32 %57, ptr %4, align 4
  br label %63

58:                                               ; preds = %47
  %59 = load ptr, ptr %5, align 8, !tbaa !82
  %60 = getelementptr inbounds nuw %struct.Gia_Man2Min_t_, ptr %59, i32 0, i32 12
  %61 = load i32, ptr %60, align 4, !tbaa !127
  %62 = add nsw i32 %61, 1
  store i32 %62, ptr %60, align 4, !tbaa !127
  store i32 0, ptr %4, align 4
  br label %63

63:                                               ; preds = %58, %51
  %64 = load i32, ptr %4, align 4
  ret i32 %64
}