; Function Attrs: nounwind uwtable
define i32 @Gia_Man2SupportAnd(ptr noundef captures(none) initializes((8, 16)) %0, i32 noundef %1, i32 noundef %2) local_unnamed_addr #0 {
  %4 = getelementptr inbounds nuw i8, ptr %0, i64 104
  %5 = load i32, ptr %4, align 8, !tbaa !108
  %6 = add nsw i32 %5, 1
  store i32 %6, ptr %4, align 8, !tbaa !108
  %7 = getelementptr inbounds nuw i8, ptr %0, i64 8
  store i32 %1, ptr %7, align 8, !tbaa !47
  %8 = getelementptr inbounds nuw i8, ptr %0, i64 12
  store i32 %2, ptr %8, align 4, !tbaa !47
  %9 = icmp slt i32 %1, 2
  %10 = icmp slt i32 %2, 2
  %or.cond = or i1 %9, %10
  %.unshifted = xor i32 %2, %1
  %11 = icmp ult i32 %.unshifted, 2
  %or.cond25 = or i1 %or.cond, %11
  br i1 %or.cond25, label %42, label %12

12:                                               ; preds = %3
  %13 = load ptr, ptr %0, align 8, !tbaa !71
  %14 = tail call i32 @Gia_ManHashLookupInt(ptr noundef %13, i32 noundef %1, i32 noundef %2) #17
  %.not = icmp eq i32 %14, 0
  br i1 %.not, label %15, label %42

15:                                               ; preds = %12
  %16 = getelementptr inbounds nuw i8, ptr %0, i64 112
  %17 = load i32, ptr %16, align 8, !tbaa !106
  %18 = add nsw i32 %17, 1
  store i32 %18, ptr %16, align 8, !tbaa !106
  %19 = load ptr, ptr %0, align 8, !tbaa !71
  tail call void @Gia_ManIncrementTravId(ptr noundef %19) #17
  %20 = getelementptr inbounds nuw i8, ptr %0, i64 16
  %21 = getelementptr inbounds nuw i8, ptr %0, i64 32
  br label %22

22:                                               ; preds = %22, %15
  %23 = phi i1 [ true, %15 ], [ false, %22 ]
  %indvars.iv.i = phi i64 [ 0, %15 ], [ 1, %22 ]
  %24 = getelementptr inbounds nuw [2 x ptr], ptr %20, i64 0, i64 %indvars.iv.i
  %25 = load ptr, ptr %24, align 8, !tbaa !18
  %26 = getelementptr inbounds nuw i8, ptr %25, i64 4
  store i32 0, ptr %26, align 4, !tbaa !12
  %27 = getelementptr inbounds nuw [2 x ptr], ptr %21, i64 0, i64 %indvars.iv.i
  %28 = load ptr, ptr %27, align 8, !tbaa !18
  %29 = getelementptr inbounds nuw i8, ptr %28, i64 4
  store i32 0, ptr %29, align 4, !tbaa !12
  %30 = load ptr, ptr %0, align 8, !tbaa !71
  tail call void @Gia_ManIncrementTravId(ptr noundef %30) #17
  %31 = load ptr, ptr %0, align 8, !tbaa !71
  %32 = getelementptr inbounds nuw [2 x i32], ptr %7, i64 0, i64 %indvars.iv.i
  %33 = load i32, ptr %32, align 4, !tbaa !47
  %34 = ashr i32 %33, 1
  %35 = load ptr, ptr %24, align 8, !tbaa !18
  %36 = load ptr, ptr %27, align 8, !tbaa !18
  %37 = tail call fastcc i32 @Gia_Min2ManGatherSupp_rec(ptr noundef %31, i32 noundef %34, ptr noundef %35, ptr noundef %36)
  br i1 %23, label %22, label %Gia_Min2ManGatherSupp.exit, !llvm.loop !107

Gia_Min2ManGatherSupp.exit:                       ; preds = %22
  %.not22 = icmp eq i32 %37, 0
  br i1 %.not22, label %42, label %38

38:                                               ; preds = %Gia_Min2ManGatherSupp.exit
  %39 = tail call i32 @Gia_Min2ManSimulate(ptr noundef nonnull %0)
  %.not23 = icmp eq i32 %39, 0
  br i1 %.not23, label %42, label %40

40:                                               ; preds = %38
  %41 = tail call i32 @Gia_Min2ManSolve(ptr noundef nonnull %0)
  %.not24 = icmp eq i32 %41, 0
  br i1 %.not24, label %42, label %45

42:                                               ; preds = %40, %38, %Gia_Min2ManGatherSupp.exit, %12, %3
  %43 = load ptr, ptr %0, align 8, !tbaa !71
  %44 = tail call i32 @Gia_ManHashAnd(ptr noundef %43, i32 noundef %1, i32 noundef %2) #17
  br label %49

45:                                               ; preds = %40
  %46 = getelementptr inbounds nuw i8, ptr %0, i64 100
  %47 = load i32, ptr %46, align 4, !tbaa !109
  %48 = add nsw i32 %47, 1
  store i32 %48, ptr %46, align 4, !tbaa !109
  br label %49

49:                                               ; preds = %45, %42
  %.0 = phi i32 [ %44, %42 ], [ 0, %45 ]
  ret i32 %.0
}